#include <math.h>
#include <stdio.h>
#include <stdlib.h>
#include <string.h>

void main()
{
	int a[8][8],m,n,i,j,max,r=1;
	scanf("%d,%d",&m,&n);
	for(i=0;i<m;i++)
		for(j=0;j<n;j++)
			scanf("%d",&a[i][j]);
	for(i=0;i<m;i++)
	{max=0;
	 for(j=1;j<n;j++)
		 if(a[i][j]>a[i][max]) max=j;
	 for(j=0;j<m;j++)
		 if(a[j][max]<a[i][max]) {r=0;break;}
	 if(r==1) {printf("%d+%d\n",i,max);break;}
	}
	if(r==0) printf("No");
}